; Function Attrs: mustprogress sspstrong uwtable
define void @_ZN3tbb6detail2r117threading_control7destroyEv(ptr noundef nonnull align 8 dereferenceable(16) %0) local_unnamed_addr #0 align 2 personality ptr @__gxx_personality_v0 {
  %2 = load ptr, ptr %0, align 8, !tbaa !150
  %.not.i.i.i = icmp eq ptr %2, null
  br i1 %.not.i.i.i, label %_ZNK3tbb6detail2r121cache_aligned_deleterclINS1_17threading_controlEEEvPT_.exit, label %3

3:                                                ; preds = %1
  tail call void @_ZN3tbb6detail2r122threading_control_implD2Ev(ptr noundef nonnull align 8 dereferenceable(40) %2) #16
  invoke void @_ZN3tbb6detail2r124cache_aligned_deallocateEPv(ptr noundef nonnull %2)
          to label %_ZNK3tbb6detail2r121cache_aligned_deleterclINS1_17threading_controlEEEvPT_.exit unwind label %4

4:                                                ; preds = %3
  %5 = landingpad { ptr, i32 }
          catch ptr null
  %6 = extractvalue { ptr, i32 } %5, 0
  tail call void @__clang_call_terminate(ptr %6) #22
  unreachable

_ZNK3tbb6detail2r121cache_aligned_deleterclINS1_17threading_controlEEEvPT_.exit: ; preds = %1, %3
  store ptr null, ptr %0, align 8, !tbaa !150
  tail call void @_ZN3tbb6detail2r124cache_aligned_deallocateEPv(ptr noundef nonnull %0)
  tail call void @_ZN3tbb6detail2r114__TBB_InitOnce10remove_refEv()
  ret void
}